; Function Attrs: mustprogress uwtable
define hidden void @_ZN19OpenColorIO_v2_5dev9CDLParser4Impl21StartElementHandlerCCEPvPKcPS4_(ptr noundef %0, ptr noundef %1, ptr noundef %2) #4 align 2 personality ptr @__gxx_personality_v0 {
  %4 = alloca %"class.std::shared_ptr.4", align 8
  %5 = tail call noundef zeroext i1 @_ZN19OpenColorIO_v2_5dev9CDLParser4Impl19IsValidStartElementEPS1_PKc(ptr noundef %0, ptr noundef %1)
  %6 = tail call noundef zeroext i1 @_ZN19OpenColorIO_v2_5dev9CDLParser4Impl35HandleColorCorrectionCCStartElementEPS1_PKc(ptr noundef %0, ptr noundef %1)
  br i1 %6, label %15, label %7

7:                                                ; preds = %3
  %8 = tail call noundef zeroext i1 @_ZN19OpenColorIO_v2_5dev9CDLParser4Impl25HandleSOPNodeStartElementEPS1_PKc(ptr noundef %0, ptr noundef %1)
  br i1 %8, label %15, label %9

9:                                                ; preds = %7
  %10 = tail call noundef zeroext i1 @_ZN19OpenColorIO_v2_5dev9CDLParser4Impl25HandleSatNodeStartElementEPS1_PKc(ptr noundef %0, ptr noundef %1)
  br i1 %10, label %15, label %11

11:                                               ; preds = %9
  %12 = tail call noundef zeroext i1 @_ZN19OpenColorIO_v2_5dev9CDLParser4Impl26HandleTerminalStartElementEPS1_PKc(ptr noundef %0, ptr noundef %1)
  br i1 %12, label %15, label %13

13:                                               ; preds = %11
  %14 = tail call noundef zeroext i1 @_ZN19OpenColorIO_v2_5dev9CDLParser4Impl25HandleUnknownStartElementEPS1_PKc(ptr noundef %0, ptr noundef %1)
  br label %15

15:                                               ; preds = %13, %11, %9, %7, %3
  call void @llvm.lifetime.start.p0(i64 16, ptr nonnull %4) #30
  %16 = getelementptr inbounds nuw i8, ptr %0, i64 8
  call void @_ZNK19OpenColorIO_v2_5dev21XmlReaderElementStack4backEv(ptr dead_on_unwind nonnull writable sret(%"class.std::shared_ptr.4") align 8 %4, ptr noundef nonnull align 8 dereferenceable(32) %16)
  %17 = load ptr, ptr %4, align 8, !tbaa !82
  %18 = load ptr, ptr %17, align 8, !tbaa !40
  %19 = getelementptr inbounds nuw i8, ptr %18, i64 16
  %20 = load ptr, ptr %19, align 8
  invoke void %20(ptr noundef nonnull align 8 dereferenceable(80) %17, ptr noundef %2)
          to label %21 unwind label %45

21:                                               ; preds = %15
  %22 = getelementptr inbounds nuw i8, ptr %4, i64 8
  %23 = load ptr, ptr %22, align 8, !tbaa !36
  %.not.i.i = icmp eq ptr %23, null
  br i1 %.not.i.i, label %_ZNSt12__shared_ptrIN19OpenColorIO_v2_5dev16XmlReaderElementELN9__gnu_cxx12_Lock_policyE2EED2Ev.exit, label %24

24:                                               ; preds = %21
  %25 = getelementptr inbounds nuw i8, ptr %23, i64 8
  %26 = load atomic i64, ptr %25 acquire, align 8
  %27 = icmp eq i64 %26, 4294967297
  %28 = trunc i64 %26 to i32
  br i1 %27, label %29, label %37

29:                                               ; preds = %24
  store i32 0, ptr %25, align 8, !tbaa !37
  %30 = getelementptr inbounds nuw i8, ptr %23, i64 12
  store i32 0, ptr %30, align 4, !tbaa !39
  %31 = load ptr, ptr %23, align 8, !tbaa !40
  %32 = getelementptr inbounds nuw i8, ptr %31, i64 16
  %33 = load ptr, ptr %32, align 8
  call void %33(ptr noundef nonnull align 8 dereferenceable(16) %23) #30
  %34 = load ptr, ptr %23, align 8, !tbaa !40
  %35 = getelementptr inbounds nuw i8, ptr %34, i64 24
  %36 = load ptr, ptr %35, align 8
  call void %36(ptr noundef nonnull align 8 dereferenceable(16) %23) #30
  br label %_ZNSt12__shared_ptrIN19OpenColorIO_v2_5dev16XmlReaderElementELN9__gnu_cxx12_Lock_policyE2EED2Ev.exit

37:                                               ; preds = %24
  %38 = load i8, ptr @__libc_single_threaded, align 1, !tbaa !33
  %.not.i.i.i = icmp eq i8 %38, 0
  br i1 %.not.i.i.i, label %41, label %39

39:                                               ; preds = %37
  %40 = add nsw i32 %28, -1
  store i32 %40, ptr %25, align 4, !tbaa !42
  br label %_ZN9__gnu_cxx27__exchange_and_add_dispatchEPii.exit.i.i.i

41:                                               ; preds = %37
  %42 = atomicrmw volatile add ptr %25, i32 -1 acq_rel, align 4
  br label %_ZN9__gnu_cxx27__exchange_and_add_dispatchEPii.exit.i.i.i

_ZN9__gnu_cxx27__exchange_and_add_dispatchEPii.exit.i.i.i: ; preds = %41, %39
  %.0.i.i.i.i = phi i32 [ %28, %39 ], [ %42, %41 ]
  %43 = icmp eq i32 %.0.i.i.i.i, 1
  br i1 %43, label %44, label %_ZNSt12__shared_ptrIN19OpenColorIO_v2_5dev16XmlReaderElementELN9__gnu_cxx12_Lock_policyE2EED2Ev.exit, !prof !43

44:                                               ; preds = %_ZN9__gnu_cxx27__exchange_and_add_dispatchEPii.exit.i.i.i
  call void @_ZNSt16_Sp_counted_baseILN9__gnu_cxx12_Lock_policyE2EE24_M_release_last_use_coldEv(ptr noundef nonnull align 8 dereferenceable(16) %23) #30
  br label %_ZNSt12__shared_ptrIN19OpenColorIO_v2_5dev16XmlReaderElementELN9__gnu_cxx12_Lock_policyE2EED2Ev.exit

_ZNSt12__shared_ptrIN19OpenColorIO_v2_5dev16XmlReaderElementELN9__gnu_cxx12_Lock_policyE2EED2Ev.exit: ; preds = %21, %29, %_ZN9__gnu_cxx27__exchange_and_add_dispatchEPii.exit.i.i.i, %44
  call void @llvm.lifetime.end.p0(i64 16, ptr nonnull %4) #30
  ret void

45:                                               ; preds = %15
  %46 = landingpad { ptr, i32 }
          cleanup
  call void @_ZNSt12__shared_ptrIN19OpenColorIO_v2_5dev16XmlReaderElementELN9__gnu_cxx12_Lock_policyE2EED2Ev(ptr noundef nonnull align 8 dereferenceable(16) %4) #30
  call void @llvm.lifetime.end.p0(i64 16, ptr nonnull %4) #30
  resume { ptr, i32 } %46
}